target datalayout = "e-m:e-p270:32:32-p271:32:32-p272:64:64-i64:64-i128:128-f80:128-n8:16:32:64-S128"
target triple = "x86_64-pc-linux-gnu"

%"class.icu_77::UMutex" = type { [40 x i8], %"struct.std::atomic.1", ptr }
%"struct.std::atomic.1" = type { %"struct.std::__atomic_base.2" }
%"struct.std::__atomic_base.2" = type { ptr }
%struct.CurrencyNameCacheEntry = type { [157 x i8], ptr, i32, ptr, i32, i32 }
%struct.CurrencyNameStruct = type { ptr, ptr, i32, i32 }

@_ZL19gCurrencyCacheMutex = internal global %"class.icu_77::UMutex" zeroinitializer, align 8

; Function Attrs: mustprogress uwtable
define internal void @_ZL17releaseCacheEntryP22CurrencyNameCacheEntry(ptr noundef %0) #1 {
  %2 = alloca ptr, align 8
  store ptr %0, ptr %2, align 8, !tbaa !22
  call void @umtx_lock_77(ptr noundef @_ZL19gCurrencyCacheMutex)
  %3 = load ptr, ptr %2, align 8, !tbaa !22
  %4 = getelementptr inbounds nuw %struct.CurrencyNameCacheEntry, ptr %3, i32 0, i32 5
  %5 = load i32, ptr %4, align 4, !tbaa !86
  %6 = add nsw i32 %5, -1
  store i32 %6, ptr %4, align 4, !tbaa !86
  %7 = load ptr, ptr %2, align 8, !tbaa !22
  %8 = getelementptr inbounds nuw %struct.CurrencyNameCacheEntry, ptr %7, i32 0, i32 5
  %9 = load i32, ptr %8, align 4, !tbaa !86
  %10 = icmp eq i32 %9, 0
  br i1 %10, label %11, label %13

11:                                               ; preds = %1
  %12 = load ptr, ptr %2, align 8, !tbaa !22
  call void @_ZL16deleteCacheEntryP22CurrencyNameCacheEntry(ptr noundef %12)
  br label %13

13:                                               ; preds = %11, %1
  call void @umtx_unlock_77(ptr noundef @_ZL19gCurrencyCacheMutex)
  ret void
}

; Function Attrs: inlinehint mustprogress nounwind uwtable
define internal noundef signext i8 @_ZL9U_FAILURE10UErrorCode(i32 noundef %0) #2 {
  %2 = alloca i32, align 4
  store i32 %0, ptr %2, align 4, !tbaa !15
  %3 = load i32, ptr %2, align 4, !tbaa !15
  %4 = icmp sgt i32 %3, 0
  %5 = zext i1 %4 to i8
  ret i8 %5
}

; Function Attrs: mustprogress uwtable
define void @_Z21uprv_currencyLeads_77PKcRN6icu_7710UnicodeSetER10UErrorCode(ptr noundef %0, ptr noundef nonnull align 8 dereferenceable(200) %1, ptr noundef nonnull align 4 dereferenceable(4) %2) #1 {
  %4 = alloca ptr, align 8
  %5 = alloca ptr, align 8
  %6 = alloca ptr, align 8
  %7 = alloca ptr, align 8
  %8 = alloca i32, align 4
  %9 = alloca i32, align 4
  %10 = alloca ptr, align 8
  %11 = alloca i32, align 4
  %12 = alloca i16, align 2
  %13 = alloca i32, align 4
  %14 = alloca ptr, align 8
  %15 = alloca i32, align 4
  %16 = alloca i16, align 2
  store ptr %0, ptr %4, align 8, !tbaa !17
  store ptr %1, ptr %5, align 8, !tbaa !99
  store ptr %2, ptr %6, align 8, !tbaa !22
  %17 = load ptr, ptr %6, align 8, !tbaa !22
  %18 = load i32, ptr %17, align 4, !tbaa !15
  %19 = call noundef signext i8 @_ZL9U_FAILURE10UErrorCode(i32 noundef %18)
  %20 = icmp ne i8 %19, 0
  br i1 %20, label %21, label %22

21:                                               ; preds = %3
  br label %159

22:                                               ; preds = %3
  call void @llvm.lifetime.start.p0(i64 8, ptr %7) #12
  %23 = load ptr, ptr %4, align 8, !tbaa !17
  %24 = load ptr, ptr %6, align 8, !tbaa !22
  %25 = call noundef ptr @_ZL13getCacheEntryPKcR10UErrorCode(ptr noundef %23, ptr noundef nonnull align 4 dereferenceable(4) %24)
  store ptr %25, ptr %7, align 8, !tbaa !22
  %26 = load ptr, ptr %6, align 8, !tbaa !22
  %27 = load i32, ptr %26, align 4, !tbaa !15
  %28 = call noundef signext i8 @_ZL9U_FAILURE10UErrorCode(i32 noundef %27)
  %29 = icmp ne i8 %28, 0
  br i1 %29, label %30, label %31

30:                                               ; preds = %22
  store i32 1, ptr %8, align 4
  br label %157

31:                                               ; preds = %22
  call void @llvm.lifetime.start.p0(i64 4, ptr %9) #12
  store i32 0, ptr %9, align 4, !tbaa !14
  br label %32

32:                                               ; preds = %90, %31
  %33 = load i32, ptr %9, align 4, !tbaa !14
  %34 = load ptr, ptr %7, align 8, !tbaa !22
  %35 = getelementptr inbounds nuw %struct.CurrencyNameCacheEntry, ptr %34, i32 0, i32 4
  %36 = load i32, ptr %35, align 8, !tbaa !81
  %37 = icmp slt i32 %33, %36
  br i1 %37, label %39, label %38

38:                                               ; preds = %32
  store i32 2, ptr %8, align 4
  call void @llvm.lifetime.end.p0(i64 4, ptr %9) #12
  br label %93

39:                                               ; preds = %32
  call void @llvm.lifetime.start.p0(i64 8, ptr %10) #12
  %40 = load ptr, ptr %7, align 8, !tbaa !22
  %41 = getelementptr inbounds nuw %struct.CurrencyNameCacheEntry, ptr %40, i32 0, i32 3
  %42 = load ptr, ptr %41, align 8, !tbaa !82
  %43 = load i32, ptr %9, align 4, !tbaa !14
  %44 = sext i32 %43 to i64
  %45 = getelementptr inbounds %struct.CurrencyNameStruct, ptr %42, i64 %44
  store ptr %45, ptr %10, align 8, !tbaa !22
  call void @llvm.lifetime.start.p0(i64 4, ptr %11) #12
  br label %46

46:                                               ; preds = %39
  %47 = load ptr, ptr %10, align 8, !tbaa !22
  %48 = getelementptr inbounds nuw %struct.CurrencyNameStruct, ptr %47, i32 0, i32 1
  %49 = load ptr, ptr %48, align 8, !tbaa !101
  %50 = getelementptr inbounds i16, ptr %49, i64 0
  %51 = load i16, ptr %50, align 2, !tbaa !96
  %52 = zext i16 %51 to i32
  store i32 %52, ptr %11, align 4, !tbaa !14
  %53 = load i32, ptr %11, align 4, !tbaa !14
  %54 = and i32 %53, -2048
  %55 = icmp eq i32 %54, 55296
  br i1 %55, label %56, label %84

56:                                               ; preds = %46
  call void @llvm.lifetime.start.p0(i64 2, ptr %12) #12
  %57 = load i32, ptr %11, align 4, !tbaa !14
  %58 = and i32 %57, 1024
  %59 = icmp eq i32 %58, 0
  br i1 %59, label %60, label %82

60:                                               ; preds = %56
  %61 = load ptr, ptr %10, align 8, !tbaa !22
  %62 = getelementptr inbounds nuw %struct.CurrencyNameStruct, ptr %61, i32 0, i32 2
  %63 = load i32, ptr %62, align 8, !tbaa !102
  %64 = icmp ne i32 1, %63
  br i1 %64, label %65, label %81

65:                                               ; preds = %60
  %66 = load ptr, ptr %10, align 8, !tbaa !22
  %67 = getelementptr inbounds nuw %struct.CurrencyNameStruct, ptr %66, i32 0, i32 1
  %68 = load ptr, ptr %67, align 8, !tbaa !101
  %69 = getelementptr inbounds i16, ptr %68, i64 1
  %70 = load i16, ptr %69, align 2, !tbaa !96
  store i16 %70, ptr %12, align 2, !tbaa !103
  %71 = zext i16 %70 to i32
  %72 = and i32 %71, -1024
  %73 = icmp eq i32 %72, 56320
  br i1 %73, label %74, label %81

74:                                               ; preds = %65
  %75 = load i32, ptr %11, align 4, !tbaa !14
  %76 = shl i32 %75, 10
  %77 = load i16, ptr %12, align 2, !tbaa !103
  %78 = zext i16 %77 to i32
  %79 = add nsw i32 %76, %78
  %80 = sub nsw i32 %79, 56613888
  store i32 %80, ptr %11, align 4, !tbaa !14
  br label %81

81:                                               ; preds = %74, %65, %60
  br label %83

82:                                               ; preds = %56
  br label %83

83:                                               ; preds = %82, %81
  call void @llvm.lifetime.end.p0(i64 2, ptr %12) #12
  br label %84

84:                                               ; preds = %83, %46
  br label %85

85:                                               ; preds = %84
  br label %86

86:                                               ; preds = %85
  %87 = load ptr, ptr %5, align 8, !tbaa !99
  %88 = load i32, ptr %11, align 4, !tbaa !14
  %89 = call noundef nonnull align 8 dereferenceable(200) ptr @_ZN6icu_7710UnicodeSet3addEi(ptr noundef nonnull align 8 dereferenceable(200) %87, i32 noundef %88)
  call void @llvm.lifetime.end.p0(i64 4, ptr %11) #12
  call void @llvm.lifetime.end.p0(i64 8, ptr %10) #12
  br label %90

90:                                               ; preds = %86
  %91 = load i32, ptr %9, align 4, !tbaa !14
  %92 = add nsw i32 %91, 1
  store i32 %92, ptr %9, align 4, !tbaa !14
  br label %32, !llvm.loop !105

93:                                               ; preds = %38
  call void @llvm.lifetime.start.p0(i64 4, ptr %13) #12
  store i32 0, ptr %13, align 4, !tbaa !14
  br label %94

94:                                               ; preds = %152, %93
  %95 = load i32, ptr %13, align 4, !tbaa !14
  %96 = load ptr, ptr %7, align 8, !tbaa !22
  %97 = getelementptr inbounds nuw %struct.CurrencyNameCacheEntry, ptr %96, i32 0, i32 2
  %98 = load i32, ptr %97, align 8, !tbaa !78
  %99 = icmp slt i32 %95, %98
  br i1 %99, label %101, label %100

100:                                              ; preds = %94
  store i32 7, ptr %8, align 4
  call void @llvm.lifetime.end.p0(i64 4, ptr %13) #12
  br label %155

101:                                              ; preds = %94
  call void @llvm.lifetime.start.p0(i64 8, ptr %14) #12
  %102 = load ptr, ptr %7, align 8, !tbaa !22
  %103 = getelementptr inbounds nuw %struct.CurrencyNameCacheEntry, ptr %102, i32 0, i32 1
  %104 = load ptr, ptr %103, align 8, !tbaa !80
  %105 = load i32, ptr %13, align 4, !tbaa !14
  %106 = sext i32 %105 to i64
  %107 = getelementptr inbounds %struct.CurrencyNameStruct, ptr %104, i64 %106
  store ptr %107, ptr %14, align 8, !tbaa !22
  call void @llvm.lifetime.start.p0(i64 4, ptr %15) #12
  br label %108

108:                                              ; preds = %101
  %109 = load ptr, ptr %14, align 8, !tbaa !22
  %110 = getelementptr inbounds nuw %struct.CurrencyNameStruct, ptr %109, i32 0, i32 1
  %111 = load ptr, ptr %110, align 8, !tbaa !101
  %112 = getelementptr inbounds i16, ptr %111, i64 0
  %113 = load i16, ptr %112, align 2, !tbaa !96
  %114 = zext i16 %113 to i32
  store i32 %114, ptr %15, align 4, !tbaa !14
  %115 = load i32, ptr %15, align 4, !tbaa !14
  %116 = and i32 %115, -2048
  %117 = icmp eq i32 %116, 55296
  br i1 %117, label %118, label %146

118:                                              ; preds = %108
  call void @llvm.lifetime.start.p0(i64 2, ptr %16) #12
  %119 = load i32, ptr %15, align 4, !tbaa !14
  %120 = and i32 %119, 1024
  %121 = icmp eq i32 %120, 0
  br i1 %121, label %122, label %144

122:                                              ; preds = %118
  %123 = load ptr, ptr %14, align 8, !tbaa !22
  %124 = getelementptr inbounds nuw %struct.CurrencyNameStruct, ptr %123, i32 0, i32 2
  %125 = load i32, ptr %124, align 8, !tbaa !102
  %126 = icmp ne i32 1, %125
  br i1 %126, label %127, label %143

127:                                              ; preds = %122
  %128 = load ptr, ptr %14, align 8, !tbaa !22
  %129 = getelementptr inbounds nuw %struct.CurrencyNameStruct, ptr %128, i32 0, i32 1
  %130 = load ptr, ptr %129, align 8, !tbaa !101
  %131 = getelementptr inbounds i16, ptr %130, i64 1
  %132 = load i16, ptr %131, align 2, !tbaa !96
  store i16 %132, ptr %16, align 2, !tbaa !103
  %133 = zext i16 %132 to i32
  %134 = and i32 %133, -1024
  %135 = icmp eq i32 %134, 56320
  br i1 %135, label %136, label %143

136:                                              ; preds = %127
  %137 = load i32, ptr %15, align 4, !tbaa !14
  %138 = shl i32 %137, 10
  %139 = load i16, ptr %16, align 2, !tbaa !103
  %140 = zext i16 %139 to i32
  %141 = add nsw i32 %138, %140
  %142 = sub nsw i32 %141, 56613888
  store i32 %142, ptr %15, align 4, !tbaa !14
  br label %143

143:                                              ; preds = %136, %127, %122
  br label %145

144:                                              ; preds = %118
  br label %145

145:                                              ; preds = %144, %143
  call void @llvm.lifetime.end.p0(i64 2, ptr %16) #12
  br label %146

146:                                              ; preds = %145, %108
  br label %147

147:                                              ; preds = %146
  br label %148

148:                                              ; preds = %147
  %149 = load ptr, ptr %5, align 8, !tbaa !99
  %150 = load i32, ptr %15, align 4, !tbaa !14
  %151 = call noundef nonnull align 8 dereferenceable(200) ptr @_ZN6icu_7710UnicodeSet3addEi(ptr noundef nonnull align 8 dereferenceable(200) %149, i32 noundef %150)
  call void @llvm.lifetime.end.p0(i64 4, ptr %15) #12
  call void @llvm.lifetime.end.p0(i64 8, ptr %14) #12
  br label %152

152:                                              ; preds = %148
  %153 = load i32, ptr %13, align 4, !tbaa !14
  %154 = add nsw i32 %153, 1
  store i32 %154, ptr %13, align 4, !tbaa !14
  br label %94, !llvm.loop !106

155:                                              ; preds = %100
  %156 = load ptr, ptr %7, align 8, !tbaa !22
  call void @_ZL17releaseCacheEntryP22CurrencyNameCacheEntry(ptr noundef %156)
  store i32 0, ptr %8, align 4
  br label %157

157:                                              ; preds = %155, %30
  call void @llvm.lifetime.end.p0(i64 8, ptr %7) #12
  %158 = load i32, ptr %8, align 4
  switch i32 %158, label %160 [
    i32 0, label %159
    i32 1, label %159
  ]

159:                                              ; preds = %21, %157, %157
  ret void

160:                                              ; preds = %157
  unreachable
}