; Function Attrs: mustprogress uwtable
define void @_Z21uprv_currencyLeads_77PKcRN6icu_7710UnicodeSetER10UErrorCode(ptr noundef %0, ptr noundef nonnull align 8 dereferenceable(200) %1, ptr noundef nonnull align 4 captures(none) dereferenceable(4) %2) local_unnamed_addr #1 {
  %4 = load i32, ptr %2, align 4, !tbaa !13
  %5 = icmp slt i32 %4, 1
  br i1 %5, label %6, label %75

6:                                                ; preds = %3
  %7 = tail call fastcc noundef ptr @_ZL13getCacheEntryPKcR10UErrorCode(ptr noundef %0, ptr noundef nonnull align 4 dereferenceable(4) %2)
  %8 = load i32, ptr %2, align 4, !tbaa !13
  %9 = icmp slt i32 %8, 1
  br i1 %9, label %.preheader42, label %75

.preheader42:                                     ; preds = %6
  %10 = getelementptr inbounds nuw i8, ptr %7, i64 184
  %11 = load i32, ptr %10, align 8, !tbaa !46
  %12 = icmp sgt i32 %11, 0
  br i1 %12, label %.lr.ph, label %.preheader

.lr.ph:                                           ; preds = %.preheader42
  %13 = getelementptr inbounds nuw i8, ptr %7, i64 176
  br label %18

.preheader:                                       ; preds = %39, %.preheader42
  %14 = getelementptr inbounds nuw i8, ptr %7, i64 168
  %15 = load i32, ptr %14, align 8, !tbaa !43
  %16 = icmp sgt i32 %15, 0
  br i1 %16, label %.lr.ph45, label %._crit_edge

.lr.ph45:                                         ; preds = %.preheader
  %17 = getelementptr inbounds nuw i8, ptr %7, i64 160
  br label %49

18:                                               ; preds = %.lr.ph, %39
  %indvars.iv = phi i64 [ 0, %.lr.ph ], [ %indvars.iv.next, %39 ]
  %19 = load ptr, ptr %13, align 8, !tbaa !47
  %20 = getelementptr inbounds nuw %struct.CurrencyNameStruct, ptr %19, i64 %indvars.iv
  %21 = getelementptr inbounds nuw i8, ptr %20, i64 8
  %22 = load ptr, ptr %21, align 8, !tbaa !74
  %23 = load i16, ptr %22, align 2, !tbaa !31
  %24 = zext i16 %23 to i32
  %25 = and i32 %24, 64512
  %or.cond = icmp eq i32 %25, 55296
  br i1 %or.cond, label %26, label %39

26:                                               ; preds = %18
  %27 = getelementptr inbounds nuw i8, ptr %20, i64 16
  %28 = load i32, ptr %27, align 8, !tbaa !77
  %.not38 = icmp eq i32 %28, 1
  br i1 %.not38, label %39, label %29

29:                                               ; preds = %26
  %30 = getelementptr inbounds nuw i8, ptr %22, i64 2
  %31 = load i16, ptr %30, align 2, !tbaa !31
  %32 = zext i16 %31 to i32
  %33 = and i32 %32, 64512
  %34 = icmp eq i32 %33, 56320
  br i1 %34, label %35, label %39

35:                                               ; preds = %29
  %36 = shl nuw nsw i32 %24, 10
  %37 = add nsw i32 %36, -56613888
  %38 = add nuw nsw i32 %37, %32
  br label %39

39:                                               ; preds = %35, %29, %26, %18
  %.135 = phi i32 [ %24, %18 ], [ %38, %35 ], [ %24, %29 ], [ %24, %26 ]
  %40 = tail call noundef nonnull align 8 dereferenceable(200) ptr @_ZN6icu_7710UnicodeSet3addEi(ptr noundef nonnull align 8 dereferenceable(200) %1, i32 noundef %.135)
  %indvars.iv.next = add nuw nsw i64 %indvars.iv, 1
  %41 = load i32, ptr %10, align 8, !tbaa !46
  %42 = sext i32 %41 to i64
  %43 = icmp slt i64 %indvars.iv.next, %42
  br i1 %43, label %18, label %.preheader, !llvm.loop !84

._crit_edge:                                      ; preds = %70, %.preheader
  tail call void @umtx_lock_77(ptr noundef nonnull @_ZL19gCurrencyCacheMutex)
  %44 = getelementptr inbounds nuw i8, ptr %7, i64 188
  %45 = load i32, ptr %44, align 4, !tbaa !55
  %46 = add nsw i32 %45, -1
  store i32 %46, ptr %44, align 4, !tbaa !55
  %47 = icmp eq i32 %46, 0
  br i1 %47, label %48, label %_ZL17releaseCacheEntryP22CurrencyNameCacheEntry.exit

48:                                               ; preds = %._crit_edge
  tail call fastcc void @_ZL16deleteCacheEntryP22CurrencyNameCacheEntry(ptr noundef nonnull %7)
  br label %_ZL17releaseCacheEntryP22CurrencyNameCacheEntry.exit

_ZL17releaseCacheEntryP22CurrencyNameCacheEntry.exit: ; preds = %._crit_edge, %48
  tail call void @umtx_unlock_77(ptr noundef nonnull @_ZL19gCurrencyCacheMutex)
  br label %75

49:                                               ; preds = %.lr.ph45, %70
  %indvars.iv47 = phi i64 [ 0, %.lr.ph45 ], [ %indvars.iv.next48, %70 ]
  %50 = load ptr, ptr %17, align 8, !tbaa !45
  %51 = getelementptr inbounds nuw %struct.CurrencyNameStruct, ptr %50, i64 %indvars.iv47
  %52 = getelementptr inbounds nuw i8, ptr %51, i64 8
  %53 = load ptr, ptr %52, align 8, !tbaa !74
  %54 = load i16, ptr %53, align 2, !tbaa !31
  %55 = zext i16 %54 to i32
  %56 = and i32 %55, 64512
  %or.cond41 = icmp eq i32 %56, 55296
  br i1 %or.cond41, label %57, label %70

57:                                               ; preds = %49
  %58 = getelementptr inbounds nuw i8, ptr %51, i64 16
  %59 = load i32, ptr %58, align 8, !tbaa !77
  %.not37 = icmp eq i32 %59, 1
  br i1 %.not37, label %70, label %60

60:                                               ; preds = %57
  %61 = getelementptr inbounds nuw i8, ptr %53, i64 2
  %62 = load i16, ptr %61, align 2, !tbaa !31
  %63 = zext i16 %62 to i32
  %64 = and i32 %63, 64512
  %65 = icmp eq i32 %64, 56320
  br i1 %65, label %66, label %70

66:                                               ; preds = %60
  %67 = shl nuw nsw i32 %55, 10
  %68 = add nsw i32 %67, -56613888
  %69 = add nuw nsw i32 %68, %63
  br label %70

70:                                               ; preds = %66, %60, %57, %49
  %.1 = phi i32 [ %55, %49 ], [ %69, %66 ], [ %55, %60 ], [ %55, %57 ]
  %71 = tail call noundef nonnull align 8 dereferenceable(200) ptr @_ZN6icu_7710UnicodeSet3addEi(ptr noundef nonnull align 8 dereferenceable(200) %1, i32 noundef %.1)
  %indvars.iv.next48 = add nuw nsw i64 %indvars.iv47, 1
  %72 = load i32, ptr %14, align 8, !tbaa !43
  %73 = sext i32 %72 to i64
  %74 = icmp slt i64 %indvars.iv.next48, %73
  br i1 %74, label %49, label %._crit_edge, !llvm.loop !85

75:                                               ; preds = %_ZL17releaseCacheEntryP22CurrencyNameCacheEntry.exit, %6, %3
  ret void
}